target datalayout = "e-m:e-p270:32:32-p271:32:32-p272:64:64-i64:64-i128:128-f80:128-n8:16:32:64-S128"
target triple = "x86_64-pc-linux-gnu"

%union.pthread_mutex_t = type { %struct.__pthread_mutex_s }
%struct.__pthread_mutex_s = type { i32, i32, i32, i32, i32, i16, i16, %struct.__pthread_internal_list }
%struct.__pthread_internal_list = type { ptr, ptr }
%union.pthread_cond_t = type { %struct.__pthread_cond_s }
%struct.__pthread_cond_s = type { %union.__atomic_wide_counter, %union.__atomic_wide_counter, [2 x i32], [2 x i32], i32, i32, [2 x i32] }
%union.__atomic_wide_counter = type { i64 }

@state_save_lock = internal global %union.pthread_mutex_t zeroinitializer, align 8
@.str = private unnamed_addr constant [29 x i8] c"%s: pthread_mutex_lock(): %m\00", align 1
@__func__.schedule_front_end_save = private unnamed_addr constant [24 x i8] c"schedule_front_end_save\00", align 1
@save_front_end = internal global i32 0, align 4
@state_save_cond = internal global %union.pthread_cond_t zeroinitializer, align 8
@.str.1 = private unnamed_addr constant [39 x i8] c"%s:%d %s: pthread_cond_broadcast(): %m\00", align 1
@.str.2 = private unnamed_addr constant [13 x i8] c"state_save.c\00", align 1
@.str.3 = private unnamed_addr constant [31 x i8] c"%s: pthread_mutex_unlock(): %m\00", align 1

; Function Attrs: nounwind uwtable
define dso_local void @schedule_front_end_save() #0 {
  %1 = alloca i32, align 4
  %2 = alloca i32, align 4
  %3 = alloca i32, align 4
  br label %4

4:                                                ; preds = %0
  call void @llvm.lifetime.start.p0(i64 4, ptr %1) #7
  %5 = call i32 @pthread_mutex_lock(ptr noundef @state_save_lock) #7
  store i32 %5, ptr %1, align 4
  %6 = load i32, ptr %1, align 4
  %7 = icmp ne i32 %6, 0
  br i1 %7, label %8, label %11

8:                                                ; preds = %4
  %9 = load i32, ptr %1, align 4
  %10 = call ptr @__errno_location() #8
  store i32 %9, ptr %10, align 4
  call void (ptr, ...) @fatal_abort(ptr noundef @.str, ptr noundef @__func__.schedule_front_end_save) #9
  unreachable

11:                                               ; preds = %4
  call void @llvm.lifetime.end.p0(i64 4, ptr %1) #7
  br label %12

12:                                               ; preds = %11
  %13 = load i32, ptr @save_front_end, align 4
  %14 = add nsw i32 %13, 1
  store i32 %14, ptr @save_front_end, align 4
  br label %15

15:                                               ; preds = %12
  call void @llvm.lifetime.start.p0(i64 4, ptr %2) #7
  %16 = call i32 @pthread_cond_broadcast(ptr noundef @state_save_cond) #7
  store i32 %16, ptr %2, align 4
  %17 = load i32, ptr %2, align 4
  %18 = icmp ne i32 %17, 0
  br i1 %18, label %19, label %23

19:                                               ; preds = %15
  %20 = load i32, ptr %2, align 4
  %21 = call ptr @__errno_location() #8
  store i32 %20, ptr %21, align 4
  %22 = call i32 (ptr, ...) @error(ptr noundef @.str.1, ptr noundef @.str.2, i32 noundef 71, ptr noundef @__func__.schedule_front_end_save)
  br label %23

23:                                               ; preds = %19, %15
  call void @llvm.lifetime.end.p0(i64 4, ptr %2) #7
  br label %24

24:                                               ; preds = %23
  br label %25

25:                                               ; preds = %24
  call void @llvm.lifetime.start.p0(i64 4, ptr %3) #7
  %26 = call i32 @pthread_mutex_unlock(ptr noundef @state_save_lock) #7
  store i32 %26, ptr %3, align 4
  %27 = load i32, ptr %3, align 4
  %28 = icmp ne i32 %27, 0
  br i1 %28, label %29, label %32

29:                                               ; preds = %25
  %30 = load i32, ptr %3, align 4
  %31 = call ptr @__errno_location() #8
  store i32 %30, ptr %31, align 4
  call void (ptr, ...) @fatal_abort(ptr noundef @.str.3, ptr noundef @__func__.schedule_front_end_save) #9
  unreachable

32:                                               ; preds = %25
  call void @llvm.lifetime.end.p0(i64 4, ptr %3) #7
  br label %33

33:                                               ; preds = %32
  ret void
}